target datalayout = "e-m:e-p270:32:32-p271:32:32-p272:64:64-i64:64-i128:128-f80:128-n8:16:32:64-S128"
target triple = "x86_64-pc-linux-gnu"

%struct.sq_queue_s = type { ptr, ptr }
%struct.mutex_s = type { %struct.sem_s, i32 }
%struct.sem_s = type { i16, i8, %struct.dq_queue_s, ptr }
%struct.dq_queue_s = type { ptr, ptr }
%struct.rmutex_s = type { %struct.mutex_s, i32 }
%struct.mm_map_s = type { %struct.sq_queue_s, i64, %struct.rmutex_s }
%struct.mm_map_entry_s = type { ptr, ptr, i64, i32, i32, i32, %union.anon, ptr }
%union.anon = type { ptr }
%struct.sq_entry_s = type { ptr }

; Function Attrs: nounwind uwtable
define internal zeroext i1 @in_range(ptr noundef %0, i64 noundef %1, ptr noundef %2, i64 noundef %3) #0 {
  %5 = alloca ptr, align 8
  %6 = alloca i64, align 8
  %7 = alloca ptr, align 8
  %8 = alloca i64, align 8
  %9 = alloca ptr, align 8
  %10 = alloca ptr, align 8
  %11 = alloca ptr, align 8
  %12 = alloca ptr, align 8
  store ptr %0, ptr %5, align 8
  store i64 %1, ptr %6, align 8
  store ptr %2, ptr %7, align 8
  store i64 %3, ptr %8, align 8
  %13 = load ptr, ptr %5, align 8
  store ptr %13, ptr %9, align 8
  %14 = load ptr, ptr %9, align 8
  %15 = load i64, ptr %6, align 8
  %16 = getelementptr inbounds i8, ptr %14, i64 %15
  store ptr %16, ptr %10, align 8
  %17 = load ptr, ptr %7, align 8
  store ptr %17, ptr %11, align 8
  %18 = load ptr, ptr %11, align 8
  %19 = load i64, ptr %8, align 8
  %20 = getelementptr inbounds i8, ptr %18, i64 %19
  store ptr %20, ptr %12, align 8
  %21 = load ptr, ptr %9, align 8
  %22 = load ptr, ptr %11, align 8
  %23 = icmp uge ptr %21, %22
  br i1 %23, label %24, label %36

24:                                               ; preds = %4
  %25 = load ptr, ptr %9, align 8
  %26 = load ptr, ptr %12, align 8
  %27 = icmp ult ptr %25, %26
  br i1 %27, label %28, label %36

28:                                               ; preds = %24
  %29 = load ptr, ptr %10, align 8
  %30 = load ptr, ptr %11, align 8
  %31 = icmp uge ptr %29, %30
  br i1 %31, label %32, label %36

32:                                               ; preds = %28
  %33 = load ptr, ptr %10, align 8
  %34 = load ptr, ptr %12, align 8
  %35 = icmp ule ptr %33, %34
  br label %36

36:                                               ; preds = %32, %28, %24, %4
  %37 = phi i1 [ false, %28 ], [ false, %24 ], [ false, %4 ], [ %35, %32 ]
  ret i1 %37
}

; Function Attrs: nounwind uwtable
define ptr @mm_map_find(ptr noundef %0, ptr noundef %1, i64 noundef %2) #0 {
  %4 = alloca ptr, align 8
  %5 = alloca ptr, align 8
  %6 = alloca i64, align 8
  %7 = alloca ptr, align 8
  store ptr %0, ptr %4, align 8
  store ptr %1, ptr %5, align 8
  store i64 %2, ptr %6, align 8
  store ptr null, ptr %7, align 8
  %8 = load ptr, ptr %4, align 8
  %9 = getelementptr inbounds %struct.mm_map_s, ptr %8, i32 0, i32 2
  %10 = call i32 @nxrmutex_lock(ptr noundef %9)
  %11 = icmp eq i32 %10, 0
  br i1 %11, label %12, label %41

12:                                               ; preds = %3
  %13 = load ptr, ptr %4, align 8
  %14 = getelementptr inbounds %struct.mm_map_s, ptr %13, i32 0, i32 0
  %15 = getelementptr inbounds %struct.sq_queue_s, ptr %14, i32 0, i32 0
  %16 = load ptr, ptr %15, align 8
  store ptr %16, ptr %7, align 8
  br label %17

17:                                               ; preds = %33, %12
  %18 = load ptr, ptr %7, align 8
  %19 = icmp ne ptr %18, null
  br i1 %19, label %20, label %31

20:                                               ; preds = %17
  %21 = load ptr, ptr %5, align 8
  %22 = load i64, ptr %6, align 8
  %23 = load ptr, ptr %7, align 8
  %24 = getelementptr inbounds %struct.mm_map_entry_s, ptr %23, i32 0, i32 1
  %25 = load ptr, ptr %24, align 8
  %26 = load ptr, ptr %7, align 8
  %27 = getelementptr inbounds %struct.mm_map_entry_s, ptr %26, i32 0, i32 2
  %28 = load i64, ptr %27, align 8
  %29 = call zeroext i1 @in_range(ptr noundef %21, i64 noundef %22, ptr noundef %25, i64 noundef %28)
  %30 = xor i1 %29, true
  br label %31

31:                                               ; preds = %20, %17
  %32 = phi i1 [ false, %17 ], [ %30, %20 ]
  br i1 %32, label %33, label %37

33:                                               ; preds = %31
  %34 = load ptr, ptr %7, align 8
  %35 = getelementptr inbounds %struct.sq_entry_s, ptr %34, i32 0, i32 0
  %36 = load ptr, ptr %35, align 8
  store ptr %36, ptr %7, align 8
  br label %17, !llvm.loop !8

37:                                               ; preds = %31
  %38 = load ptr, ptr %4, align 8
  %39 = getelementptr inbounds %struct.mm_map_s, ptr %38, i32 0, i32 2
  %40 = call i32 @nxrmutex_unlock(ptr noundef %39)
  br label %41

41:                                               ; preds = %37, %3
  %42 = load ptr, ptr %7, align 8
  ret ptr %42
}