; Function Attrs: nounwind uwtable
define ptr @mm_map_find(ptr noundef %0, ptr noundef readnone %1, i64 noundef %2) local_unnamed_addr #0 {
  %4 = getelementptr inbounds nuw i8, ptr %0, i64 24
  %5 = tail call i32 @nxrmutex_lock(ptr noundef nonnull %4) #6
  %6 = icmp eq i32 %5, 0
  br i1 %6, label %.preheader, label %18

.preheader:                                       ; preds = %3
  %7 = getelementptr inbounds i8, ptr %1, i64 %2
  br label %8

8:                                                ; preds = %.preheader, %9
  %.1.in = phi ptr [ %.1, %9 ], [ %0, %.preheader ]
  %.1 = load ptr, ptr %.1.in, align 8
  %.not = icmp eq ptr %.1, null
  br i1 %.not, label %.critedge, label %9

9:                                                ; preds = %8
  %10 = getelementptr inbounds nuw i8, ptr %.1, i64 8
  %11 = load ptr, ptr %10, align 8
  %12 = getelementptr inbounds nuw i8, ptr %.1, i64 16
  %13 = load i64, ptr %12, align 8
  %14 = getelementptr inbounds i8, ptr %11, i64 %13
  %.not.i = icmp uge ptr %1, %11
  %15 = icmp ult ptr %1, %14
  %or.cond.not19.not21.i = select i1 %.not.i, i1 %15, i1 false
  %.not16.i = icmp uge ptr %7, %11
  %or.cond17.not.i = select i1 %or.cond.not19.not21.i, i1 %.not16.i, i1 false
  %16 = icmp ule ptr %7, %14
  %spec.select.i = select i1 %or.cond17.not.i, i1 %16, i1 false
  br i1 %spec.select.i, label %.critedge, label %8, !llvm.loop !8

.critedge:                                        ; preds = %8, %9
  %17 = tail call i32 @nxrmutex_unlock(ptr noundef nonnull %4) #6
  br label %18

18:                                               ; preds = %.critedge, %3
  %.0 = phi ptr [ %.1, %.critedge ], [ null, %3 ]
  ret ptr %.0
}